; Function Attrs: nounwind ssp uwtable
define internal fastcc void @ge25519_mont_to_ed(ptr noundef nonnull captures(none) initializes((0, 40)) %0, ptr noundef nonnull initializes((0, 40)) %1, ptr noundef nonnull readonly captures(none) %2, ptr noundef nonnull readonly captures(none) %3) unnamed_addr #4 {
  %5 = alloca [32 x i8], align 16
  %6 = alloca [5 x i64], align 16
  %7 = alloca [5 x i64], align 16
  %8 = alloca [5 x i64], align 16
  %9 = alloca [5 x i64], align 16
  call void @llvm.lifetime.start.p0(i64 40, ptr nonnull %6) #12
  call void @llvm.lifetime.start.p0(i64 40, ptr nonnull %7) #12
  call void @llvm.lifetime.start.p0(i64 40, ptr nonnull %8) #12
  call void @llvm.lifetime.start.p0(i64 40, ptr nonnull %9) #12
  store i64 1, ptr %6, align 16
  %10 = getelementptr inbounds nuw i8, ptr %6, i64 8
  call void @llvm.memset.p0.i64(ptr noundef nonnull align 8 dereferenceable(32) %10, i8 noundef 0, i64 noundef 32, i1 noundef false) #12
  %11 = load i64, ptr %2, align 8
  %12 = add i64 %11, 1
  %13 = getelementptr i8, ptr %2, i64 8
  %14 = load i64, ptr %13, align 8
  %15 = getelementptr i8, ptr %2, i64 16
  %16 = load i64, ptr %15, align 8
  %17 = getelementptr i8, ptr %2, i64 24
  %18 = load i64, ptr %17, align 8
  %19 = getelementptr i8, ptr %2, i64 32
  %20 = load i64, ptr %19, align 8
  store i64 %12, ptr %7, align 16
  %21 = getelementptr inbounds nuw i8, ptr %7, i64 8
  store i64 %14, ptr %21, align 8
  %22 = getelementptr inbounds nuw i8, ptr %7, i64 16
  store i64 %16, ptr %22, align 16
  %23 = getelementptr inbounds nuw i8, ptr %7, i64 24
  store i64 %18, ptr %23, align 8
  %24 = getelementptr inbounds nuw i8, ptr %7, i64 32
  store i64 %20, ptr %24, align 16
  %25 = add i64 %11, 4503599627370457
  %26 = add i64 %14, 4503599627370494
  %reass.sub46.i = add i64 %16, 4503599627370494
  %reass.sub47.i = add i64 %18, 4503599627370494
  %27 = add i64 %20, 4503599627370494
  store i64 %25, ptr %8, align 16
  %28 = getelementptr inbounds nuw i8, ptr %8, i64 8
  store i64 %26, ptr %28, align 8
  %29 = getelementptr inbounds nuw i8, ptr %8, i64 16
  store i64 %reass.sub46.i, ptr %29, align 16
  %30 = getelementptr inbounds nuw i8, ptr %8, i64 24
  store i64 %reass.sub47.i, ptr %30, align 8
  %31 = getelementptr inbounds nuw i8, ptr %8, i64 32
  store i64 %27, ptr %31, align 16
  call fastcc void @fe25519_mul(ptr noundef nonnull %9, ptr noundef nonnull %7, ptr noundef nonnull %3)
  call void @_sodium_fe25519_invert(ptr noundef nonnull %9, ptr noundef nonnull %9)
  tail call fastcc void @fe25519_mul(ptr noundef nonnull %0, ptr noundef nonnull %2, ptr noundef nonnull @ed25519_sqrtam2)
  call fastcc void @fe25519_mul(ptr noundef nonnull %0, ptr noundef nonnull %0, ptr noundef nonnull %9)
  call fastcc void @fe25519_mul(ptr noundef nonnull %0, ptr noundef nonnull %0, ptr noundef nonnull %7)
  call fastcc void @fe25519_mul(ptr noundef nonnull %1, ptr noundef nonnull %9, ptr noundef nonnull %3)
  call fastcc void @fe25519_mul(ptr noundef nonnull %1, ptr noundef nonnull %1, ptr noundef nonnull %8)
  call void @llvm.lifetime.start.p0(i64 32, ptr nonnull %5) #12
  call void @_sodium_fe25519_tobytes(ptr noundef nonnull %5, ptr noundef nonnull readonly %9)
  %32 = call i32 @sodium_is_zero(ptr noundef nonnull %5, i64 noundef 32) #12
  call void @llvm.lifetime.end.p0(i64 32, ptr nonnull %5) #12
  %33 = call { i64, i64, i64 } asm sideeffect "test      $5,     $5\0Amovq     ($4),    $0\0Acmoveq   ($3),    $0\0Amovq    8($4),    $1\0Acmoveq  8($3),    $1\0Amovq   16($4),    $2\0Acmoveq 16($3),    $2\0Amovq      $0,   ($3)\0Amovq      $1,  8($3)\0Amovq   24($4),    $0\0Acmoveq 24($3),    $0\0Amovq   32($4),    $1\0Acmoveq 32($3),    $1\0Amovq      $2, 16($3)\0Amovq      $0, 24($3)\0Amovq      $1, 32($3)\0A", "=&r,=&r,=&r,r,r,r,~{cc},~{memory},~{dirflag},~{fpsr},~{flags}"(ptr nonnull %1, ptr nonnull %6, i32 %32) #12, !srcloc !13
  call void @llvm.lifetime.end.p0(i64 40, ptr nonnull %9) #12
  call void @llvm.lifetime.end.p0(i64 40, ptr nonnull %8) #12
  call void @llvm.lifetime.end.p0(i64 40, ptr nonnull %7) #12
  call void @llvm.lifetime.end.p0(i64 40, ptr nonnull %6) #12
  ret void
}